target datalayout = "e-m:e-p270:32:32-p271:32:32-p272:64:64-i64:64-i128:128-f80:128-n8:16:32:64-S128"
target triple = "x86_64-pc-linux-gnu"

%class.QString = type { %struct.QArrayDataPointer }
%struct.QArrayDataPointer = type { ptr, ptr, i64 }
%class.QVariant = type { %"struct.QVariant::Private" }
%"struct.QVariant::Private" = type { %union.anon, i64 }
%union.anon = type { ptr, [16 x i8] }
%class.QFont = type <{ %class.QExplicitlySharedDataPointer, i32, [4 x i8] }>
%class.QExplicitlySharedDataPointer = type { ptr }
%class.QPen = type { ptr }
%class.QBrush = type { %"class.std::unique_ptr" }
%"class.std::unique_ptr" = type { %"struct.std::__uniq_ptr_data" }
%"struct.std::__uniq_ptr_data" = type { %"class.std::__uniq_ptr_impl" }
%"class.std::__uniq_ptr_impl" = type { %"class.std::tuple" }
%"class.std::tuple" = type { %"struct.std::_Tuple_impl" }
%"struct.std::_Tuple_impl" = type { %"struct.std::_Head_base.1" }
%"struct.std::_Head_base.1" = type { ptr }
%class.QColor = type <{ i32, %"union.QColor::CT", [2 x i8] }>
%"union.QColor::CT" = type { %struct.anon }
%struct.anon = type { i16, i16, i16, i16, i16 }
%class.QPixmap = type { %class.QPaintDevice.base, %class.QExplicitlySharedDataPointer.43 }
%class.QPaintDevice.base = type <{ ptr, i16 }>
%class.QExplicitlySharedDataPointer.43 = type { ptr }
%class.TCPStreamDialog = type { %class.GeometryStateDialog, ptr, ptr, %class.QMultiMap, double, i8, %class.QMap, double, i8, %struct.tcp_graph, ptr, %class.QString, ptr, ptr, ptr, ptr, ptr, ptr, ptr, ptr, ptr, ptr, ptr, ptr, ptr, ptr, %class.QRectF, i32, [4 x i8], %class.QTransform, i8, ptr, %class.QPoint, %class.QMenu, %"class.TCPStreamDialog::GraphUpdater", i32, i32, i32, double }
%class.GeometryStateDialog = type { %class.QDialog, %class.QString }
%class.QDialog = type { %class.QWidget }
%class.QWidget = type { %class.QObject, %class.QPaintDevice.base, ptr }
%class.QObject = type { ptr, %class.QScopedPointer }
%class.QScopedPointer = type { ptr }
%class.QMultiMap = type { %"class.QtPrivate::QExplicitlySharedDataPointerV2" }
%"class.QtPrivate::QExplicitlySharedDataPointerV2" = type { ptr }
%class.QMap = type { %"class.QtPrivate::QExplicitlySharedDataPointerV2.5" }
%"class.QtPrivate::QExplicitlySharedDataPointerV2.5" = type { ptr }
%struct.tcp_graph = type { i32, %struct._address, i16, %struct._address, i16, i32, ptr }
%struct._address = type { i32, i32, ptr, ptr }
%class.QRectF = type { double, double, double, double }
%class.QTransform = type <{ [3 x [3 x double]], i16, [6 x i8] }>
%class.QPoint = type { i32, i32 }
%class.QMenu = type { %class.QWidget }
%"class.TCPStreamDialog::GraphUpdater" = type <{ ptr, ptr, i8, [7 x i8] }>
%class.Ui_TCPStreamDialog = type { ptr, ptr, ptr, ptr, ptr, ptr, ptr, ptr, ptr, ptr, ptr, ptr, ptr, ptr, ptr, ptr, ptr, ptr, ptr, ptr, ptr, ptr, ptr, ptr, ptr, ptr, ptr, ptr, ptr, ptr, ptr, ptr, ptr, ptr, ptr, ptr, ptr, ptr, ptr, ptr, ptr, ptr, ptr, ptr, ptr, ptr, ptr, ptr, ptr, ptr, ptr, ptr, ptr, ptr, ptr, ptr, ptr }
%class.QCustomPlot = type <{ %class.QWidget, ptr, ptr, ptr, ptr, ptr, %class.QRect, double, ptr, i8, [7 x i8], %class.QList.26, %class.QList.30, %class.QList.34, %class.QList.38, %class.QFlags.25, %class.QFlags.25, %class.QFlags.42, i32, i8, [7 x i8], %class.QBrush, %class.QPixmap, %class.QPixmap, i8, [3 x i8], i32, ptr, %class.QFlags.44, i32, i32, [4 x i8], ptr, i8, [7 x i8], %class.QList.45, %class.QPoint, i8, [7 x i8], %class.QPointer, %class.QPointer, %class.QVariant, %class.QVariant, i8, i8, [6 x i8], double, double, i32, %class.QFlags.25, i8, [7 x i8] }>
%class.QRect = type { i32, i32, i32, i32 }
%class.QList.26 = type { %struct.QArrayDataPointer.29 }
%struct.QArrayDataPointer.29 = type { ptr, ptr, i64 }
%class.QList.30 = type { %struct.QArrayDataPointer.33 }
%struct.QArrayDataPointer.33 = type { ptr, ptr, i64 }
%class.QList.34 = type { %struct.QArrayDataPointer.37 }
%struct.QArrayDataPointer.37 = type { ptr, ptr, i64 }
%class.QList.38 = type { %struct.QArrayDataPointer.41 }
%struct.QArrayDataPointer.41 = type { ptr, ptr, i64 }
%class.QFlags.42 = type { i32 }
%class.QFlags.44 = type { i32 }
%class.QList.45 = type { %struct.QArrayDataPointer.48 }
%struct.QArrayDataPointer.48 = type { ptr, ptr, i64 }
%class.QPointer = type { %class.QWeakPointer }
%class.QWeakPointer = type { ptr, ptr }
%class.QFlags.25 = type { i32 }
%class.QCPAxis = type { %class.QCPLayerable.base, i32, ptr, i32, i32, %class.QFlags.15, %class.QFlags.15, %class.QPen, %class.QPen, %class.QString, %class.QFont, %class.QFont, %class.QColor, %class.QColor, i8, [7 x i8], %class.QFont, %class.QFont, %class.QColor, %class.QColor, i32, %struct.QLatin1Char, i8, i8, i8, %class.QPen, %class.QPen, %class.QPen, %class.QPen, %class.QCPRange, i8, i32, ptr, ptr, %class.QSharedPointer.16, %class.QList.17, %class.QList.21, %class.QList.17, i8, i32, i8, %class.QCPRange, %class.QFlags.25, %class.QFlags.25 }
%class.QCPLayerable.base = type <{ %class.QObject, i8, [7 x i8], ptr, %class.QPointer, ptr, i8 }>
%class.QFlags.15 = type { i32 }
%struct.QLatin1Char = type { i8 }
%class.QSharedPointer.16 = type { ptr, ptr }
%class.QList.21 = type { %struct.QArrayDataPointer.24 }
%struct.QArrayDataPointer.24 = type { ptr, ptr, i64 }
%class.QList.17 = type { %struct.QArrayDataPointer.20 }
%struct.QArrayDataPointer.20 = type { ptr, ptr, i64 }
%class.QCPRange = type { double, double }
%class.QCPLayerable = type <{ %class.QObject, i8, [7 x i8], ptr, %class.QPointer, ptr, i8, [7 x i8] }>
%class.QCPLayoutElement = type { %class.QCPLayerable.base, ptr, %class.QSize, %class.QSize, i32, %class.QRect, %class.QRect, %class.QMargins, %class.QMargins, %class.QFlags.10, %class.QHash }
%class.QSize = type { i32, i32 }
%class.QMargins = type { i32, i32, i32, i32 }
%class.QFlags.10 = type { i32 }
%class.QHash = type { ptr }

; Function Attrs: mustprogress nounwind uwtable
define linkonce_odr noundef i32 @_ZNK5QRect6heightEv(ptr noundef nonnull align 4 dereferenceable(16) %0) #2 comdat align 2 {
  %2 = alloca ptr, align 8
  store ptr %0, ptr %2, align 8
  %3 = load ptr, ptr %2, align 8
  %4 = getelementptr inbounds %class.QRect, ptr %3, i32 0, i32 3
  %5 = load i32, ptr %4, align 4
  %6 = getelementptr inbounds %class.QRect, ptr %3, i32 0, i32 1
  %7 = load i32, ptr %6, align 4
  %8 = sub i32 %5, %7
  %9 = add i32 %8, 1
  ret i32 %9
}

; Function Attrs: mustprogress nounwind uwtable
define linkonce_odr noundef i32 @_ZNK5QRect5widthEv(ptr noundef nonnull align 4 dereferenceable(16) %0) #2 comdat align 2 {
  %2 = alloca ptr, align 8
  store ptr %0, ptr %2, align 8
  %3 = load ptr, ptr %2, align 8
  %4 = getelementptr inbounds %class.QRect, ptr %3, i32 0, i32 2
  %5 = load i32, ptr %4, align 4
  %6 = getelementptr inbounds %class.QRect, ptr %3, i32 0, i32 0
  %7 = load i32, ptr %6, align 4
  %8 = sub i32 %5, %7
  %9 = add i32 %8, 1
  ret i32 %9
}

; Function Attrs: mustprogress nounwind uwtable
define linkonce_odr noundef i32 @_ZNK11QCPAxisRect6heightEv(ptr noundef nonnull align 8 dereferenceable(432) %0) #2 comdat align 2 {
  %2 = alloca ptr, align 8
  store ptr %0, ptr %2, align 8
  %3 = load ptr, ptr %2, align 8
  %4 = getelementptr inbounds %class.QCPLayoutElement, ptr %3, i32 0, i32 5
  %5 = call noundef i32 @_ZNK5QRect6heightEv(ptr noundef nonnull align 4 dereferenceable(16) %4) #3
  ret i32 %5
}

; Function Attrs: mustprogress nounwind uwtable
define linkonce_odr noundef double @_ZNK8QCPRange4sizeEv(ptr noundef nonnull align 8 dereferenceable(16) %0) #2 comdat align 2 {
  %2 = alloca ptr, align 8
  store ptr %0, ptr %2, align 8
  %3 = load ptr, ptr %2, align 8
  %4 = getelementptr inbounds %class.QCPRange, ptr %3, i32 0, i32 1
  %5 = load double, ptr %4, align 8
  %6 = getelementptr inbounds %class.QCPRange, ptr %3, i32 0, i32 0
  %7 = load double, ptr %6, align 8
  %8 = fsub double %5, %7
  ret double %8
}

; Function Attrs: mustprogress nounwind uwtable
define linkonce_odr noundef zeroext i1 @_ZNK12QCPLayerable7visibleEv(ptr noundef nonnull align 8 dereferenceable(57) %0) #2 comdat align 2 {
  %2 = alloca ptr, align 8
  store ptr %0, ptr %2, align 8
  %3 = load ptr, ptr %2, align 8
  %4 = getelementptr inbounds %class.QCPLayerable, ptr %3, i32 0, i32 1
  %5 = load i8, ptr %4, align 8
  %6 = trunc i8 %5 to i1
  ret i1 %6
}

; Function Attrs: mustprogress nounwind uwtable
define linkonce_odr noundef double @_ZNK8QCPRange6centerEv(ptr noundef nonnull align 8 dereferenceable(16) %0) #2 comdat align 2 {
  %2 = alloca ptr, align 8
  store ptr %0, ptr %2, align 8
  %3 = load ptr, ptr %2, align 8
  %4 = getelementptr inbounds %class.QCPRange, ptr %3, i32 0, i32 1
  %5 = load double, ptr %4, align 8
  %6 = getelementptr inbounds %class.QCPRange, ptr %3, i32 0, i32 0
  %7 = load double, ptr %6, align 8
  %8 = fadd double %5, %7
  %9 = fmul double %8, 5.000000e-01
  ret double %9
}

; Function Attrs: mustprogress nounwind uwtable
define linkonce_odr { double, double } @_ZNK7QCPAxis5rangeEv(ptr noundef nonnull align 8 dereferenceable(472) %0) #2 comdat align 2 {
  %2 = alloca %class.QCPRange, align 8
  %3 = alloca ptr, align 8
  store ptr %0, ptr %3, align 8
  %4 = load ptr, ptr %3, align 8
  %5 = getelementptr inbounds %class.QCPAxis, ptr %4, i32 0, i32 29
  call void @llvm.memcpy.p0.p0.i64(ptr align 8 %2, ptr align 8 %5, i64 16, i1 false)
  %6 = load { double, double }, ptr %2, align 8
  ret { double, double } %6
}

; Function Attrs: mustprogress nounwind uwtable
define linkonce_odr noundef i32 @_ZNK11QCPAxisRect5widthEv(ptr noundef nonnull align 8 dereferenceable(432) %0) #2 comdat align 2 {
  %2 = alloca ptr, align 8
  store ptr %0, ptr %2, align 8
  %3 = load ptr, ptr %2, align 8
  %4 = getelementptr inbounds %class.QCPLayoutElement, ptr %3, i32 0, i32 5
  %5 = call noundef i32 @_ZNK5QRect5widthEv(ptr noundef nonnull align 4 dereferenceable(16) %4) #3
  ret i32 %5
}

; Function Attrs: mustprogress nounwind uwtable
define linkonce_odr noundef ptr @_ZNK7QCPAxis8axisRectEv(ptr noundef nonnull align 8 dereferenceable(472) %0) #2 comdat align 2 {
  %2 = alloca ptr, align 8
  store ptr %0, ptr %2, align 8
  %3 = load ptr, ptr %2, align 8
  %4 = getelementptr inbounds %class.QCPAxis, ptr %3, i32 0, i32 2
  %5 = load ptr, ptr %4, align 8
  ret ptr %5
}

; Function Attrs: mustprogress uwtable
define void @_ZN15TCPStreamDialog9resetAxesEv(ptr noundef nonnull align 8 dereferenceable(584) %0) #1 align 2 {
  %2 = alloca ptr, align 8
  %3 = alloca ptr, align 8
  %4 = alloca double, align 8
  %5 = alloca double, align 8
  %6 = alloca %class.QCPRange, align 8
  %7 = alloca double, align 8
  %8 = alloca %class.QCPRange, align 8
  %9 = alloca %class.QCPRange, align 8
  %10 = alloca %class.QCPRange, align 8
  %11 = alloca %class.QCPRange, align 8
  %12 = alloca %class.QCPRange, align 8
  store ptr %0, ptr %2, align 8
  %13 = load ptr, ptr %2, align 8
  %14 = getelementptr inbounds %class.TCPStreamDialog, ptr %13, i32 0, i32 1
  %15 = load ptr, ptr %14, align 8
  %16 = getelementptr inbounds %class.Ui_TCPStreamDialog, ptr %15, i32 0, i32 29
  %17 = load ptr, ptr %16, align 8
  store ptr %17, ptr %3, align 8
  %18 = getelementptr inbounds %class.TCPStreamDialog, ptr %13, i32 0, i32 29
  call void @_ZN10QTransform5resetEv(ptr noundef nonnull align 8 dereferenceable(74) %18)
  store double 1.000000e+01, ptr %4, align 8
  %19 = load ptr, ptr %3, align 8
  call void @_ZN11QCustomPlot11rescaleAxesEb(ptr noundef nonnull align 8 dereferenceable(513) %19, i1 noundef zeroext true)
  %20 = load ptr, ptr %3, align 8
  %21 = getelementptr inbounds %class.QCustomPlot, ptr %20, i32 0, i32 1
  %22 = load ptr, ptr %21, align 8
  %23 = call noundef ptr @_ZNK7QCPAxis8axisRectEv(ptr noundef nonnull align 8 dereferenceable(472) %22)
  %24 = call noundef i32 @_ZNK11QCPAxisRect5widthEv(ptr noundef nonnull align 8 dereferenceable(432) %23)
  %25 = sitofp i32 %24 to double
  store double %25, ptr %5, align 8
  %26 = load ptr, ptr %3, align 8
  %27 = getelementptr inbounds %class.QCustomPlot, ptr %26, i32 0, i32 1
  %28 = load ptr, ptr %27, align 8
  %29 = load double, ptr %5, align 8
  %30 = load double, ptr %4, align 8
  %31 = call double @llvm.fmuladd.f64(double %30, double 2.000000e+00, double %29)
  %32 = load double, ptr %5, align 8
  %33 = fdiv double %31, %32
  %34 = load ptr, ptr %3, align 8
  %35 = getelementptr inbounds %class.QCustomPlot, ptr %34, i32 0, i32 1
  %36 = load ptr, ptr %35, align 8
  %37 = call { double, double } @_ZNK7QCPAxis5rangeEv(ptr noundef nonnull align 8 dereferenceable(472) %36)
  %38 = getelementptr inbounds { double, double }, ptr %6, i32 0, i32 0
  %39 = extractvalue { double, double } %37, 0
  store double %39, ptr %38, align 8
  %40 = getelementptr inbounds { double, double }, ptr %6, i32 0, i32 1
  %41 = extractvalue { double, double } %37, 1
  store double %41, ptr %40, align 8
  %42 = call noundef double @_ZNK8QCPRange6centerEv(ptr noundef nonnull align 8 dereferenceable(16) %6)
  call void @_ZN7QCPAxis10scaleRangeEdd(ptr noundef nonnull align 8 dereferenceable(472) %28, double noundef %33, double noundef %42)
  %43 = load ptr, ptr %3, align 8
  %44 = getelementptr inbounds %class.QCustomPlot, ptr %43, i32 0, i32 4
  %45 = load ptr, ptr %44, align 8
  %46 = call noundef zeroext i1 @_ZNK12QCPLayerable7visibleEv(ptr noundef nonnull align 8 dereferenceable(57) %45)
  br i1 %46, label %47, label %95

47:                                               ; preds = %1
  %48 = load ptr, ptr %3, align 8
  %49 = getelementptr inbounds %class.QCustomPlot, ptr %48, i32 0, i32 4
  %50 = load ptr, ptr %49, align 8
  %51 = call { double, double } @_ZNK7QCPAxis5rangeEv(ptr noundef nonnull align 8 dereferenceable(472) %50)
  %52 = getelementptr inbounds { double, double }, ptr %8, i32 0, i32 0
  %53 = extractvalue { double, double } %51, 0
  store double %53, ptr %52, align 8
  %54 = getelementptr inbounds { double, double }, ptr %8, i32 0, i32 1
  %55 = extractvalue { double, double } %51, 1
  store double %55, ptr %54, align 8
  %56 = call noundef double @_ZNK8QCPRange4sizeEv(ptr noundef nonnull align 8 dereferenceable(16) %8)
  %57 = load ptr, ptr %3, align 8
  %58 = getelementptr inbounds %class.QCustomPlot, ptr %57, i32 0, i32 2
  %59 = load ptr, ptr %58, align 8
  %60 = call { double, double } @_ZNK7QCPAxis5rangeEv(ptr noundef nonnull align 8 dereferenceable(472) %59)
  %61 = getelementptr inbounds { double, double }, ptr %9, i32 0, i32 0
  %62 = extractvalue { double, double } %60, 0
  store double %62, ptr %61, align 8
  %63 = getelementptr inbounds { double, double }, ptr %9, i32 0, i32 1
  %64 = extractvalue { double, double } %60, 1
  store double %64, ptr %63, align 8
  %65 = call noundef double @_ZNK8QCPRange4sizeEv(ptr noundef nonnull align 8 dereferenceable(16) %9)
  %66 = fdiv double %56, %65
  store double %66, ptr %7, align 8
  %67 = getelementptr inbounds %class.TCPStreamDialog, ptr %13, i32 0, i32 29
  %68 = load ptr, ptr %3, align 8
  %69 = getelementptr inbounds %class.QCustomPlot, ptr %68, i32 0, i32 4
  %70 = load ptr, ptr %69, align 8
  %71 = call { double, double } @_ZNK7QCPAxis5rangeEv(ptr noundef nonnull align 8 dereferenceable(472) %70)
  %72 = getelementptr inbounds { double, double }, ptr %10, i32 0, i32 0
  %73 = extractvalue { double, double } %71, 0
  store double %73, ptr %72, align 8
  %74 = getelementptr inbounds { double, double }, ptr %10, i32 0, i32 1
  %75 = extractvalue { double, double } %71, 1
  store double %75, ptr %74, align 8
  %76 = getelementptr inbounds %class.QCPRange, ptr %10, i32 0, i32 0
  %77 = load double, ptr %76, align 8
  %78 = load ptr, ptr %3, align 8
  %79 = getelementptr inbounds %class.QCustomPlot, ptr %78, i32 0, i32 2
  %80 = load ptr, ptr %79, align 8
  %81 = call { double, double } @_ZNK7QCPAxis5rangeEv(ptr noundef nonnull align 8 dereferenceable(472) %80)
  %82 = getelementptr inbounds { double, double }, ptr %11, i32 0, i32 0
  %83 = extractvalue { double, double } %81, 0
  store double %83, ptr %82, align 8
  %84 = getelementptr inbounds { double, double }, ptr %11, i32 0, i32 1
  %85 = extractvalue { double, double } %81, 1
  store double %85, ptr %84, align 8
  %86 = getelementptr inbounds %class.QCPRange, ptr %11, i32 0, i32 0
  %87 = load double, ptr %86, align 8
  %88 = load double, ptr %7, align 8
  %89 = fneg double %87
  %90 = call double @llvm.fmuladd.f64(double %89, double %88, double %77)
  %91 = call noundef nonnull align 8 dereferenceable(74) ptr @_ZN10QTransform9translateEdd(ptr noundef nonnull align 8 dereferenceable(74) %67, double noundef 0.000000e+00, double noundef %90)
  %92 = getelementptr inbounds %class.TCPStreamDialog, ptr %13, i32 0, i32 29
  %93 = load double, ptr %7, align 8
  %94 = call noundef nonnull align 8 dereferenceable(74) ptr @_ZN10QTransform5scaleEdd(ptr noundef nonnull align 8 dereferenceable(74) %92, double noundef 1.000000e+00, double noundef %93)
  br label %95

95:                                               ; preds = %47, %1
  %96 = load ptr, ptr %3, align 8
  %97 = getelementptr inbounds %class.QCustomPlot, ptr %96, i32 0, i32 2
  %98 = load ptr, ptr %97, align 8
  %99 = call noundef ptr @_ZNK7QCPAxis8axisRectEv(ptr noundef nonnull align 8 dereferenceable(472) %98)
  %100 = call noundef i32 @_ZNK11QCPAxisRect6heightEv(ptr noundef nonnull align 8 dereferenceable(432) %99)
  %101 = sitofp i32 %100 to double
  store double %101, ptr %5, align 8
  %102 = load ptr, ptr %3, align 8
  %103 = getelementptr inbounds %class.QCustomPlot, ptr %102, i32 0, i32 2
  %104 = load ptr, ptr %103, align 8
  %105 = load double, ptr %5, align 8
  %106 = load double, ptr %4, align 8
  %107 = call double @llvm.fmuladd.f64(double %106, double 2.000000e+00, double %105)
  %108 = load double, ptr %5, align 8
  %109 = fdiv double %107, %108
  %110 = load ptr, ptr %3, align 8
  %111 = getelementptr inbounds %class.QCustomPlot, ptr %110, i32 0, i32 2
  %112 = load ptr, ptr %111, align 8
  %113 = call { double, double } @_ZNK7QCPAxis5rangeEv(ptr noundef nonnull align 8 dereferenceable(472) %112)
  %114 = getelementptr inbounds { double, double }, ptr %12, i32 0, i32 0
  %115 = extractvalue { double, double } %113, 0
  store double %115, ptr %114, align 8
  %116 = getelementptr inbounds { double, double }, ptr %12, i32 0, i32 1
  %117 = extractvalue { double, double } %113, 1
  store double %117, ptr %116, align 8
  %118 = call noundef double @_ZNK8QCPRange6centerEv(ptr noundef nonnull align 8 dereferenceable(16) %12)
  call void @_ZN7QCPAxis10scaleRangeEdd(ptr noundef nonnull align 8 dereferenceable(472) %104, double noundef %109, double noundef %118)
  %119 = load ptr, ptr %3, align 8
  call void @_ZN11QCustomPlot6replotENS_15RefreshPriorityE(ptr noundef nonnull align 8 dereferenceable(513) %119, i32 noundef 2)
  ret void
}