; Function Attrs: mustprogress uwtable
define void @_ZN15TCPStreamDialog9resetAxesEv(ptr noundef nonnull align 8 dereferenceable(584) %0) local_unnamed_addr #2 align 2 {
  %2 = getelementptr inbounds i8, ptr %0, i64 64
  %3 = load ptr, ptr %2, align 8
  %4 = getelementptr inbounds i8, ptr %3, i64 232
  %5 = load ptr, ptr %4, align 8
  %6 = getelementptr inbounds i8, ptr %0, i64 392
  tail call void @_ZN10QTransform5resetEv(ptr noundef nonnull align 8 dereferenceable(74) %6)
  tail call void @_ZN11QCustomPlot11rescaleAxesEb(ptr noundef nonnull align 8 dereferenceable(513) %5, i1 noundef zeroext true)
  %7 = getelementptr inbounds i8, ptr %5, i64 40
  %8 = load ptr, ptr %7, align 8
  %9 = getelementptr inbounds i8, ptr %8, i64 64
  %10 = load ptr, ptr %9, align 8
  %11 = getelementptr inbounds i8, ptr %10, i64 92
  %12 = getelementptr inbounds i8, ptr %10, i64 100
  %13 = load i32, ptr %12, align 4
  %14 = load i32, ptr %11, align 4
  %15 = add i32 %13, 1
  %16 = sub i32 %15, %14
  %17 = sitofp i32 %16 to double
  %18 = fadd double %17, 2.000000e+01
  %19 = fdiv double %18, %17
  %20 = getelementptr inbounds i8, ptr %8, i64 304
  %.sroa.0.0.copyload.i = load double, ptr %20, align 8
  %.sroa.2.0..sroa_idx.i = getelementptr inbounds i8, ptr %8, i64 312
  %.sroa.2.0.copyload.i = load double, ptr %.sroa.2.0..sroa_idx.i, align 8
  %21 = fadd double %.sroa.0.0.copyload.i, %.sroa.2.0.copyload.i
  %22 = fmul double %21, 5.000000e-01
  tail call void @_ZN7QCPAxis10scaleRangeEdd(ptr noundef nonnull align 8 dereferenceable(472) %8, double noundef %19, double noundef %22)
  %23 = getelementptr inbounds i8, ptr %5, i64 64
  %24 = load ptr, ptr %23, align 8
  %25 = getelementptr inbounds i8, ptr %24, i64 16
  %26 = load i8, ptr %25, align 8
  %27 = and i8 %26, 1
  %.not = icmp eq i8 %27, 0
  br i1 %.not, label %40, label %28

28:                                               ; preds = %1
  %29 = getelementptr inbounds i8, ptr %24, i64 304
  %.sroa.0.0.copyload.i24 = load double, ptr %29, align 8
  %.sroa.2.0..sroa_idx.i25 = getelementptr inbounds i8, ptr %24, i64 312
  %.sroa.2.0.copyload.i26 = load double, ptr %.sroa.2.0..sroa_idx.i25, align 8
  %30 = fsub double %.sroa.2.0.copyload.i26, %.sroa.0.0.copyload.i24
  %31 = getelementptr inbounds i8, ptr %5, i64 48
  %32 = load ptr, ptr %31, align 8
  %33 = getelementptr inbounds i8, ptr %32, i64 304
  %.sroa.0.0.copyload.i29 = load double, ptr %33, align 8
  %.sroa.2.0..sroa_idx.i30 = getelementptr inbounds i8, ptr %32, i64 312
  %.sroa.2.0.copyload.i31 = load double, ptr %.sroa.2.0..sroa_idx.i30, align 8
  %34 = fsub double %.sroa.2.0.copyload.i31, %.sroa.0.0.copyload.i29
  %35 = fdiv double %30, %34
  %36 = fneg double %.sroa.0.0.copyload.i29
  %37 = tail call double @llvm.fmuladd.f64(double %36, double %35, double %.sroa.0.0.copyload.i24)
  %38 = tail call noundef nonnull align 8 dereferenceable(74) ptr @_ZN10QTransform9translateEdd(ptr noundef nonnull align 8 dereferenceable(74) %6, double noundef 0.000000e+00, double noundef %37)
  %39 = tail call noundef nonnull align 8 dereferenceable(74) ptr @_ZN10QTransform5scaleEdd(ptr noundef nonnull align 8 dereferenceable(74) %6, double noundef 1.000000e+00, double noundef %35)
  br label %40

40:                                               ; preds = %28, %1
  %41 = getelementptr inbounds i8, ptr %5, i64 48
  %42 = load ptr, ptr %41, align 8
  %43 = getelementptr inbounds i8, ptr %42, i64 64
  %44 = load ptr, ptr %43, align 8
  %45 = getelementptr inbounds i8, ptr %44, i64 104
  %46 = load i32, ptr %45, align 4
  %47 = getelementptr inbounds i8, ptr %44, i64 96
  %48 = load i32, ptr %47, align 4
  %49 = add i32 %46, 1
  %50 = sub i32 %49, %48
  %51 = sitofp i32 %50 to double
  %52 = fadd double %51, 2.000000e+01
  %53 = fdiv double %52, %51
  %54 = getelementptr inbounds i8, ptr %42, i64 304
  %.sroa.0.0.copyload.i44 = load double, ptr %54, align 8
  %.sroa.2.0..sroa_idx.i45 = getelementptr inbounds i8, ptr %42, i64 312
  %.sroa.2.0.copyload.i46 = load double, ptr %.sroa.2.0..sroa_idx.i45, align 8
  %55 = fadd double %.sroa.0.0.copyload.i44, %.sroa.2.0.copyload.i46
  %56 = fmul double %55, 5.000000e-01
  tail call void @_ZN7QCPAxis10scaleRangeEdd(ptr noundef nonnull align 8 dereferenceable(472) %42, double noundef %53, double noundef %56)
  tail call void @_ZN11QCustomPlot6replotENS_15RefreshPriorityE(ptr noundef nonnull align 8 dereferenceable(513) %5, i32 noundef 2)
  ret void
}